Certificate:
    Data:
        Version: 3 (0x2)
        Serial Number: 16 (0x10)
        Signature Algorithm: sha384WithRSAEncryption
        Issuer: C=UK, O=VMI Studio ltd., CN=VMI Studio ltd. Root CA
        Validity
            Not Before: Aug 17 11:51:05 2023 GMT
            Not After : Aug 16 11:51:05 2025 GMT
        Subject: C=UK, O=VMI Studio ltd., CN=tauriwss.sockets
        Subject Public Key Info:
            Public Key Algorithm: rsaEncryption
                RSA Public-Key: (4096 bit)
                Modulus:
                    00:df:d7:c7:79:94:7c:cf:e8:39:26:e4:65:b1:05:
                    d7:5f:7f:26:1a:ec:8d:3f:73:71:cf:1f:0f:b1:1f:
                    a8:cd:94:6e:6e:8b:e4:aa:be:cd:c4:c2:8e:e8:62:
                    42:83:b8:1c:1c:c0:bd:d3:31:57:5a:95:a3:3f:c8:
                    3a:b5:e0:46:4b:0b:96:fd:d1:a6:00:3f:de:22:24:
                    6b:71:0f:56:df:10:7a:56:b7:a2:65:18:72:a1:35:
                    1e:1d:00:77:d7:53:58:ed:35:a5:30:5f:68:b5:86:
                    6b:4c:6c:54:21:ca:72:e8:c6:11:9f:92:32:05:84:
                    13:98:6e:70:4f:01:cd:76:48:96:c8:d6:7e:c7:ad:
                    60:9e:10:24:31:0f:5b:ca:62:56:29:21:57:d7:9d:
                    ff:8a:e8:fa:ef:b0:44:ba:3b:bb:a8:9b:c0:79:1b:
                    ca:18:58:c2:73:74:91:a0:b6:63:87:a6:10:12:c5:
                    03:cd:06:14:a0:89:36:4b:b6:dc:00:e1:13:9b:bc:
                    b5:d8:7c:8b:16:ea:ef:b7:c7:4e:a3:09:b7:fd:00:
                    0e:2f:a3:2b:63:65:0b:c3:1b:6d:21:79:61:d3:6c:
                    a5:c1:0e:53:85:e0:82:fd:cb:3b:6b:ca:d5:6f:3e:
                    2a:aa:19:24:a2:ee:3e:cf:6c:31:a2:17:b0:46:a2:
                    c4:f3:b2:26:5c:80:a0:83:3f:8a:06:c7:0d:b8:b4:
                    a4:58:d6:fc:28:66:7e:64:f2:2e:29:36:3f:18:57:
                    0c:c1:30:a8:08:01:b3:1c:23:0c:93:a9:51:b2:47:
                    1d:24:e6:82:eb:e8:e2:45:fb:bb:6b:33:a1:fb:0b:
                    5a:98:93:15:5d:36:64:95:30:58:19:5f:b3:5f:54:
                    e6:bc:dc:c1:dd:35:d5:39:42:91:29:17:67:c8:2b:
                    d6:23:15:97:e1:68:71:dc:76:6f:35:e0:ea:f9:db:
                    8b:81:4f:a4:c5:11:08:ea:62:07:af:b9:17:ff:81:
                    72:ab:19:de:a3:13:26:95:75:2a:db:5c:f4:22:01:
                    93:17:f6:83:b3:4b:1e:ad:69:b3:06:3f:61:8e:0d:
                    e1:24:74:09:c2:8b:56:a3:c9:df:9e:0f:30:7f:17:
                    5f:2c:d4:e1:07:bd:ef:25:af:cd:da:23:ca:3e:7d:
                    4c:31:19:b3:56:42:5c:7f:40:cb:d1:8b:6e:d6:91:
                    33:47:8e:df:fe:8d:a3:9d:25:61:7a:ba:cf:ce:8f:
                    94:64:b1:40:b1:d7:e9:56:82:58:02:a1:f9:b8:f9:
                    56:22:41:f4:b1:11:1c:0d:9c:a1:4d:37:36:a8:48:
                    c3:a6:54:ea:62:59:4c:e2:da:72:65:46:e8:2a:3e:
                    e6:f2:c1
                Exponent: 65537 (0x10001)
        X509v3 extensions:
            X509v3 Subject Key Identifier: 
                35:5B:E2:9E:86:EF:21:65:DD:71:B1:7B:58:BE:2C:3A:29:04:F7:F5
            X509v3 Authority Key Identifier: 
                keyid:8D:DC:EC:92:61:53:48:3B:63:AE:FB:54:AB:92:6A:A9:66:20:11:AA

            X509v3 Basic Constraints: 
                CA:FALSE
            X509v3 Key Usage: critical
                Digital Signature, Key Encipherment
            X509v3 Extended Key Usage: 
                TLS Web Server Authentication, TLS Web Client Authentication
            X509v3 Subject Alternative Name: 
                DNS:tauriwss.sockets, IP Address:192.168.0.115, IP Address:192.168.1.115, IP Address:192.168.1.30, IP Address:192.168.0.122, IP Address:192.168.0.132, IP Address:192.168.0.177, IP Address:192.168.1.51, IP Address:192.168.0.109, IP Address:192.168.0.174, IP Address:10.1.41.24, IP Address:192.168.0.148, IP Address:192.168.1.179, IP Address:192.168.1.100, IP Address:192.168.56.1
    Signature Algorithm: sha384WithRSAEncryption
         63:f7:29:95:78:55:e6:4f:7a:35:80:41:0e:7a:dd:d4:e8:e6:
         3d:28:21:d1:b5:8d:96:ad:4b:3c:bc:d5:69:cb:1d:a6:89:d4:
         15:12:7f:70:a7:40:4d:e7:7d:3f:1f:e1:63:a2:d5:dc:38:11:
         8a:49:69:e8:b4:71:0d:8d:ee:8f:cf:1e:41:58:4e:22:62:88:
         74:ad:e4:6d:6b:5f:9a:0e:84:dd:27:77:8c:a1:bf:48:b6:65:
         42:31:89:3e:38:b8:e7:3e:6e:a9:66:ee:5d:1c:f9:c4:72:b1:
         7e:74:33:45:83:a0:58:a2:7b:51:2a:1e:9f:e7:e9:38:ef:48:
         4d:48:b6:12:7c:bf:b2:2c:eb:6b:a2:17:92:f2:05:e4:7e:a8:
         a6:06:5d:6b:0c:2e:ab:4d:7a:97:a9:57:cc:c5:cc:8d:c4:40:
         15:ea:d3:b6:49:72:e9:09:3a:ee:5d:1d:99:1b:90:b9:6d:53:
         20:25:49:e8:93:05:66:38:fe:c2:bf:2b:c9:6d:d4:08:48:8f:
         2a:3a:51:16:b1:ea:56:64:7f:e4:53:58:20:2d:f8:1d:71:25:
         c3:42:d2:12:dd:06:b3:18:17:65:b0:35:15:8e:7e:b3:d1:be:
         f6:51:db:cd:20:50:3a:42:e6:cb:59:e4:6a:a9:62:1b:e2:79:
         2e:4f:72:c1:4c:00:c5:77:be:f8:ae:1c:5e:b3:77:07:10:a6:
         16:e2:71:00:e5:de:86:96:58:70:74:37:3a:97:9c:95:db:4c:
         07:d3:31:1a:fa:d3:d3:fb:83:b6:54:d3:06:4e:71:d1:1a:96:
         01:07:74:fc:c6:e2:79:63:37:9c:b7:6b:73:67:24:08:18:5b:
         64:a0:f5:05:ed:da:87:9d:f8:35:d7:88:37:f8:f0:dc:d2:d8:
         cc:28:89:0c:7c:0c:8f:11:76:35:c1:fb:f9:ab:62:c5:fe:c5:
         43:c7:97:3b:80:9f:9c:c8:6e:e6:8f:ca:f0:9e:32:64:5c:79:
         85:a1:22:c1:98:0f:fb:92:86:3d:25:47:9a:ac:1e:98:9b:3b:
         da:a1:a2:b8:12:f9:68:f1:90:51:b9:f9:bf:90:dc:93:b5:5d:
         fa:db:38:e6:d5:01:bb:6c:bc:5d:a2:b9:86:ce:7e:a1:5b:47:
         01:91:60:75:76:2a:09:ad:6e:50:1b:55:e0:0f:f1:33:39:04:
         9e:40:7b:08:0a:4f:ab:25:85:36:eb:46:15:87:3d:e0:87:d9:
         cf:df:6f:2b:c3:d3:c5:56:8a:20:81:f6:f7:e1:cd:5c:73:a7:
         d0:23:2b:72:2e:f1:2c:e4:b0:27:f3:c0:26:ee:c1:93:5b:7c:
         2c:d9:ef:86:ad:9b:67:ac
-----BEGIN CERTIFICATE-----
MIIF9TCCA92gAwIBAgIBEDANBgkqhkiG9w0BAQwFADBJMQswCQYDVQQGEwJVSzEY
MBYGA1UECgwPVk1JIFN0dWRpbyBsdGQuMSAwHgYDVQQDDBdWTUkgU3R1ZGlvIGx0
ZC4gUm9vdCBDQTAeFw0yMzA4MTcxMTUxMDVaFw0yNTA4MTYxMTUxMDVaMEIxCzAJ
BgNVBAYTAlVLMRgwFgYDVQQKDA9WTUkgU3R1ZGlvIGx0ZC4xGTAXBgNVBAMMEHRh
dXJpd3NzLnNvY2tldHMwggIiMA0GCSqGSIb3DQEBAQUAA4ICDwAwggIKAoICAQDf
18d5lHzP6Dkm5GWxBddffyYa7I0/c3HPHw+xH6jNlG5ui+Sqvs3Ewo7oYkKDuBwc
wL3TMVdalaM/yDq14EZLC5b90aYAP94iJGtxD1bfEHpWt6JlGHKhNR4dAHfXU1jt
NaUwX2i1hmtMbFQhynLoxhGfkjIFhBOYbnBPAc12SJbI1n7HrWCeECQxD1vKYlYp
IVfXnf+K6PrvsES6O7uom8B5G8oYWMJzdJGgtmOHphASxQPNBhSgiTZLttwA4ROb
vLXYfIsW6u+3x06jCbf9AA4voytjZQvDG20heWHTbKXBDlOF4IL9yztrytVvPiqq
GSSi7j7PbDGiF7BGosTzsiZcgKCDP4oGxw24tKRY1vwoZn5k8i4pNj8YVwzBMKgI
AbMcIwyTqVGyRx0k5oLr6OJF+7trM6H7C1qYkxVdNmSVMFgZX7NfVOa83MHdNdU5
QpEpF2fIK9YjFZfhaHHcdm814Or524uBT6TFEQjqYgevuRf/gXKrGd6jEyaVdSrb
XPQiAZMX9oOzSx6tabMGP2GODeEkdAnCi1ajyd+eDzB/F18s1OEHve8lr83aI8o+
fUwxGbNWQlx/QMvRi27WkTNHjt/+jaOdJWF6us/Oj5RksUCx1+lWglgCofm4+VYi
QfSxERwNnKFNNzaoSMOmVOpiWUzi2nJlRugqPubywQIDAQABo4HuMIHrMB0GA1Ud
DgQWBBQ1W+Kehu8hZd1xsXtYviw6KQT39TAfBgNVHSMEGDAWgBSN3OySYVNIO2Ou
+1SrkmqpZiARqjAJBgNVHRMEAjAAMA4GA1UdDwEB/wQEAwIFoDAdBgNVHSUEFjAU
BggrBgEFBQcDAQYIKwYBBQUHAwIwbwYDVR0RBGgwZoIQdGF1cml3c3Muc29ja2V0
c4cEwKgAc4cEwKgBc4cEwKgBHocEwKgAeocEwKgAhIcEwKgAsYcEwKgBM4cEwKgA
bYcEwKgArocECgEpGIcEwKgAlIcEwKgBs4cEwKgBZIcEwKg4ATANBgkqhkiG9w0B
AQwFAAOCAgEAY/cplXhV5k96NYBBDnrd1OjmPSgh0bWNlq1LPLzVacsdponUFRJ/
cKdATed9Px/hY6LV3DgRiklp6LRxDY3uj88eQVhOImKIdK3kbWtfmg6E3Sd3jKG/
SLZlQjGJPji45z5uqWbuXRz5xHKxfnQzRYOgWKJ7USoen+fpOO9ITUi2Eny/sizr
a6IXkvIF5H6opgZdawwuq016l6lXzMXMjcRAFerTtkly6Qk67l0dmRuQuW1TICVJ
6JMFZjj+wr8ryW3UCEiPKjpRFrHqVmR/5FNYIC34HXElw0LSEt0GsxgXZbA1FY5+
s9G+9lHbzSBQOkLmy1nkaqliG+J5Lk9ywUwAxXe++K4cXrN3BxCmFuJxAOXehpZY
cHQ3OpecldtMB9MxGvrT0/uDtlTTBk5x0RqWAQd0/MbieWM3nLdrc2ckCBhbZKD1
Be3ah534NdeIN/jw3NLYzCiJDHwMjxF2NcH7+atixf7FQ8eXO4CfnMhu5o/K8J4y
ZFx5haEiwZgP+5KGPSVHmqwemJs72qGiuBL5aPGQUbn5v5Dck7Vd+ts45tUBu2y8
XaK5hs5+oVtHAZFgdXYqCa1uUBtV4A/xMzkEnkB7CApPqyWFNutGFYc94IfZz99v
K8PTxVaKIIH29+HNXHOn0CMrci7xLOSwJ/PAJu7Bk1t8LNnvhq2bZ6w=
-----END CERTIFICATE-----
